target datalayout = "e-m:e-p270:32:32-p271:32:32-p272:64:64-i64:64-i128:128-f80:128-n8:16:32:64-S128"
target triple = "x86_64-pc-linux-gnu"

%struct._typeobject = type { %struct.PyVarObject, ptr, i64, i64, ptr, i64, ptr, ptr, ptr, ptr, ptr, ptr, ptr, ptr, ptr, ptr, ptr, ptr, ptr, i64, ptr, ptr, ptr, ptr, i64, ptr, ptr, ptr, ptr, ptr, ptr, ptr, ptr, ptr, i64, ptr, ptr, ptr, ptr, ptr, ptr, ptr, ptr, ptr, ptr, ptr, i32, ptr, ptr, i8, i16 }
%struct.PyVarObject = type { %struct._object, i64 }
%struct._object = type { %union.anon, ptr }
%union.anon = type { i64 }
%struct.PyTupleObject = type { %struct.PyVarObject, [1 x ptr] }

@PyExc_TypeError = external global ptr, align 8
@_Py_NoneStruct = external global %struct._object, align 8
@.str.7 = private unnamed_addr constant [22 x i8] c"pyobject_fastcalldict\00", align 1
@.str.14 = private unnamed_addr constant [31 x i8] c"kwnames must be None or a dict\00", align 1
@.str.15 = private unnamed_addr constant [29 x i8] c"args must be None or a tuple\00", align 1
@.str.16 = private unnamed_addr constant [18 x i8] c"PyTuple_Check(op)\00", align 1
@.str.17 = private unnamed_addr constant [41 x i8] c"../cpython/Include/cpython/tupleobject.h\00", align 1
@__PRETTY_FUNCTION__.PyTuple_GET_SIZE = private unnamed_addr constant [40 x i8] c"Py_ssize_t PyTuple_GET_SIZE(PyObject *)\00", align 1
@PyLong_Type = external global %struct._typeobject, align 8
@.str.18 = private unnamed_addr constant [28 x i8] c"Py_TYPE(ob) != &PyLong_Type\00", align 1
@.str.19 = private unnamed_addr constant [28 x i8] c"../cpython/Include/object.h\00", align 1
@__PRETTY_FUNCTION__.Py_SIZE = private unnamed_addr constant [31 x i8] c"Py_ssize_t Py_SIZE(PyObject *)\00", align 1
@PyBool_Type = external global %struct._typeobject, align 8
@.str.20 = private unnamed_addr constant [28 x i8] c"Py_TYPE(ob) != &PyBool_Type\00", align 1

; Function Attrs: inlinehint nounwind uwtable
define internal i64 @Py_SIZE(ptr noundef %0) #3 {
  %2 = alloca ptr, align 8
  store ptr %0, ptr %2, align 8, !tbaa !3
  %3 = load ptr, ptr %2, align 8, !tbaa !3
  %4 = call ptr @_Py_TYPE(ptr noundef %3)
  %5 = icmp ne ptr %4, @PyLong_Type
  br i1 %5, label %6, label %7

6:                                                ; preds = %1
  br label %9

7:                                                ; preds = %1
  call void @__assert_fail(ptr noundef @.str.18, ptr noundef @.str.19, i32 noundef 282, ptr noundef @__PRETTY_FUNCTION__.Py_SIZE) #8
  unreachable

8:                                                ; No predecessors!
  br label %9

9:                                                ; preds = %8, %6
  %10 = load ptr, ptr %2, align 8, !tbaa !3
  %11 = call ptr @_Py_TYPE(ptr noundef %10)
  %12 = icmp ne ptr %11, @PyBool_Type
  br i1 %12, label %13, label %14

13:                                               ; preds = %9
  br label %16

14:                                               ; preds = %9
  call void @__assert_fail(ptr noundef @.str.20, ptr noundef @.str.19, i32 noundef 283, ptr noundef @__PRETTY_FUNCTION__.Py_SIZE) #8
  unreachable

15:                                               ; No predecessors!
  br label %16

16:                                               ; preds = %15, %13
  %17 = load ptr, ptr %2, align 8, !tbaa !3
  %18 = getelementptr inbounds nuw %struct.PyVarObject, ptr %17, i32 0, i32 1
  %19 = load i64, ptr %18, align 8, !tbaa !34
  ret i64 %19
}

; Function Attrs: inlinehint nounwind uwtable
define internal i64 @PyTuple_GET_SIZE(ptr noundef %0) #3 {
  %2 = alloca ptr, align 8
  %3 = alloca ptr, align 8
  store ptr %0, ptr %2, align 8, !tbaa !3
  call void @llvm.lifetime.start.p0(i64 8, ptr %3) #7
  %4 = load ptr, ptr %2, align 8, !tbaa !3
  %5 = call ptr @_Py_TYPE(ptr noundef %4)
  %6 = call i32 @PyType_HasFeature(ptr noundef %5, i64 noundef 67108864)
  %7 = icmp ne i32 %6, 0
  br i1 %7, label %8, label %9

8:                                                ; preds = %1
  br label %11

9:                                                ; preds = %1
  call void @__assert_fail(ptr noundef @.str.16, ptr noundef @.str.17, i32 noundef 22, ptr noundef @__PRETTY_FUNCTION__.PyTuple_GET_SIZE) #8
  unreachable

10:                                               ; No predecessors!
  br label %11

11:                                               ; preds = %10, %8
  %12 = load ptr, ptr %2, align 8, !tbaa !3
  store ptr %12, ptr %3, align 8, !tbaa !26
  %13 = load ptr, ptr %3, align 8, !tbaa !26
  %14 = call i64 @Py_SIZE(ptr noundef %13)
  call void @llvm.lifetime.end.p0(i64 8, ptr %3) #7
  ret i64 %14
}

; Function Attrs: inlinehint nounwind uwtable
define internal i32 @PyType_HasFeature(ptr noundef %0, i64 noundef %1) #3 {
  %3 = alloca ptr, align 8
  %4 = alloca i64, align 8
  %5 = alloca i64, align 8
  store ptr %0, ptr %3, align 8, !tbaa !23
  store i64 %1, ptr %4, align 8, !tbaa !10
  call void @llvm.lifetime.start.p0(i64 8, ptr %5) #7
  %6 = load ptr, ptr %3, align 8, !tbaa !23
  %7 = getelementptr inbounds nuw %struct._typeobject, ptr %6, i32 0, i32 19
  %8 = load i64, ptr %7, align 8, !tbaa !33
  store i64 %8, ptr %5, align 8, !tbaa !10
  %9 = load i64, ptr %5, align 8, !tbaa !10
  %10 = load i64, ptr %4, align 8, !tbaa !10
  %11 = and i64 %9, %10
  %12 = icmp ne i64 %11, 0
  %13 = zext i1 %12 to i32
  call void @llvm.lifetime.end.p0(i64 8, ptr %5) #7
  ret i32 %13
}

; Function Attrs: inlinehint nounwind uwtable
define internal ptr @_Py_TYPE(ptr noundef %0) #3 {
  %2 = alloca ptr, align 8
  store ptr %0, ptr %2, align 8, !tbaa !3
  %3 = load ptr, ptr %2, align 8, !tbaa !3
  %4 = getelementptr inbounds nuw %struct._object, ptr %3, i32 0, i32 1
  %5 = load ptr, ptr %4, align 8, !tbaa !27
  ret ptr %5
}

; Function Attrs: nounwind uwtable
define internal i32 @fastcall_args(ptr noundef %0, ptr noundef %1, ptr noundef %2) #0 {
  %4 = alloca i32, align 4
  %5 = alloca ptr, align 8
  %6 = alloca ptr, align 8
  %7 = alloca ptr, align 8
  store ptr %0, ptr %5, align 8, !tbaa !3
  store ptr %1, ptr %6, align 8, !tbaa !29
  store ptr %2, ptr %7, align 8, !tbaa !31
  %8 = load ptr, ptr %5, align 8, !tbaa !3
  %9 = icmp eq ptr %8, @_Py_NoneStruct
  br i1 %9, label %10, label %13

10:                                               ; preds = %3
  %11 = load ptr, ptr %6, align 8, !tbaa !29
  store ptr null, ptr %11, align 8, !tbaa !8
  %12 = load ptr, ptr %7, align 8, !tbaa !31
  store i64 0, ptr %12, align 8, !tbaa !10
  br label %29

13:                                               ; preds = %3
  %14 = load ptr, ptr %5, align 8, !tbaa !3
  %15 = call ptr @_Py_TYPE(ptr noundef %14)
  %16 = call i32 @PyType_HasFeature(ptr noundef %15, i64 noundef 67108864)
  %17 = icmp ne i32 %16, 0
  br i1 %17, label %18, label %26

18:                                               ; preds = %13
  %19 = load ptr, ptr %5, align 8, !tbaa !3
  %20 = getelementptr inbounds nuw %struct.PyTupleObject, ptr %19, i32 0, i32 1
  %21 = getelementptr inbounds [1 x ptr], ptr %20, i64 0, i64 0
  %22 = load ptr, ptr %6, align 8, !tbaa !29
  store ptr %21, ptr %22, align 8, !tbaa !8
  %23 = load ptr, ptr %5, align 8, !tbaa !3
  %24 = call i64 @PyTuple_GET_SIZE(ptr noundef %23)
  %25 = load ptr, ptr %7, align 8, !tbaa !31
  store i64 %24, ptr %25, align 8, !tbaa !10
  br label %28

26:                                               ; preds = %13
  %27 = load ptr, ptr @PyExc_TypeError, align 8, !tbaa !3
  call void @PyErr_SetString(ptr noundef %27, ptr noundef @.str.15)
  store i32 -1, ptr %4, align 4
  br label %30

28:                                               ; preds = %18
  br label %29

29:                                               ; preds = %28, %10
  store i32 0, ptr %4, align 4
  br label %30

30:                                               ; preds = %29, %26
  %31 = load i32, ptr %4, align 4
  ret i32 %31
}

; Function Attrs: nounwind uwtable
define internal ptr @_testcapi_pyobject_fastcalldict_impl(ptr noundef %0, ptr noundef %1, ptr noundef %2, ptr noundef %3) #0 {
  %5 = alloca ptr, align 8
  %6 = alloca ptr, align 8
  %7 = alloca ptr, align 8
  %8 = alloca ptr, align 8
  %9 = alloca ptr, align 8
  %10 = alloca ptr, align 8
  %11 = alloca i64, align 8
  %12 = alloca i32, align 4
  store ptr %0, ptr %6, align 8, !tbaa !3
  store ptr %1, ptr %7, align 8, !tbaa !3
  store ptr %2, ptr %8, align 8, !tbaa !3
  store ptr %3, ptr %9, align 8, !tbaa !3
  call void @llvm.lifetime.start.p0(i64 8, ptr %10) #7
  call void @llvm.lifetime.start.p0(i64 8, ptr %11) #7
  %13 = load ptr, ptr %8, align 8, !tbaa !3
  %14 = call i32 @fastcall_args(ptr noundef %13, ptr noundef %10, ptr noundef %11)
  %15 = icmp slt i32 %14, 0
  br i1 %15, label %16, label %17

16:                                               ; preds = %4
  store ptr null, ptr %5, align 8
  store i32 1, ptr %12, align 4
  br label %35

17:                                               ; preds = %4
  %18 = load ptr, ptr %9, align 8, !tbaa !3
  %19 = icmp eq ptr %18, @_Py_NoneStruct
  br i1 %19, label %20, label %21

20:                                               ; preds = %17
  store ptr null, ptr %9, align 8, !tbaa !3
  br label %29

21:                                               ; preds = %17
  %22 = load ptr, ptr %9, align 8, !tbaa !3
  %23 = call ptr @_Py_TYPE(ptr noundef %22)
  %24 = call i32 @PyType_HasFeature(ptr noundef %23, i64 noundef 536870912)
  %25 = icmp ne i32 %24, 0
  br i1 %25, label %28, label %26

26:                                               ; preds = %21
  %27 = load ptr, ptr @PyExc_TypeError, align 8, !tbaa !3
  call void @PyErr_SetString(ptr noundef %27, ptr noundef @.str.14)
  store ptr null, ptr %5, align 8
  store i32 1, ptr %12, align 4
  br label %35

28:                                               ; preds = %21
  br label %29

29:                                               ; preds = %28, %20
  %30 = load ptr, ptr %7, align 8, !tbaa !3
  %31 = load ptr, ptr %10, align 8, !tbaa !8
  %32 = load i64, ptr %11, align 8, !tbaa !10
  %33 = load ptr, ptr %9, align 8, !tbaa !3
  %34 = call ptr @PyObject_VectorcallDict(ptr noundef %30, ptr noundef %31, i64 noundef %32, ptr noundef %33)
  store ptr %34, ptr %5, align 8
  store i32 1, ptr %12, align 4
  br label %35

35:                                               ; preds = %29, %26, %16
  call void @llvm.lifetime.end.p0(i64 8, ptr %11) #7
  call void @llvm.lifetime.end.p0(i64 8, ptr %10) #7
  %36 = load ptr, ptr %5, align 8
  ret ptr %36
}

; Function Attrs: nounwind uwtable
define internal ptr @_testcapi_pyobject_fastcalldict(ptr noundef %0, ptr noundef %1, i64 noundef %2) #0 {
  %4 = alloca ptr, align 8
  %5 = alloca ptr, align 8
  %6 = alloca i64, align 8
  %7 = alloca ptr, align 8
  %8 = alloca ptr, align 8
  %9 = alloca ptr, align 8
  %10 = alloca ptr, align 8
  store ptr %0, ptr %4, align 8, !tbaa !3
  store ptr %1, ptr %5, align 8, !tbaa !8
  store i64 %2, ptr %6, align 8, !tbaa !10
  call void @llvm.lifetime.start.p0(i64 8, ptr %7) #7
  store ptr null, ptr %7, align 8, !tbaa !3
  call void @llvm.lifetime.start.p0(i64 8, ptr %8) #7
  call void @llvm.lifetime.start.p0(i64 8, ptr %9) #7
  call void @llvm.lifetime.start.p0(i64 8, ptr %10) #7
  %11 = load i64, ptr %6, align 8, !tbaa !10
  %12 = icmp sle i64 3, %11
  br i1 %12, label %13, label %16

13:                                               ; preds = %3
  %14 = load i64, ptr %6, align 8, !tbaa !10
  %15 = icmp sle i64 %14, 3
  br i1 %15, label %21, label %16

16:                                               ; preds = %13, %3
  %17 = load i64, ptr %6, align 8, !tbaa !10
  %18 = call i32 @_PyArg_CheckPositional(ptr noundef @.str.7, i64 noundef %17, i64 noundef 3, i64 noundef 3)
  %19 = icmp ne i32 %18, 0
  br i1 %19, label %21, label %20

20:                                               ; preds = %16
  br label %36

21:                                               ; preds = %16, %13
  %22 = load ptr, ptr %5, align 8, !tbaa !8
  %23 = getelementptr ptr, ptr %22, i64 0
  %24 = load ptr, ptr %23, align 8, !tbaa !3
  store ptr %24, ptr %8, align 8, !tbaa !3
  %25 = load ptr, ptr %5, align 8, !tbaa !8
  %26 = getelementptr ptr, ptr %25, i64 1
  %27 = load ptr, ptr %26, align 8, !tbaa !3
  store ptr %27, ptr %9, align 8, !tbaa !3
  %28 = load ptr, ptr %5, align 8, !tbaa !8
  %29 = getelementptr ptr, ptr %28, i64 2
  %30 = load ptr, ptr %29, align 8, !tbaa !3
  store ptr %30, ptr %10, align 8, !tbaa !3
  %31 = load ptr, ptr %4, align 8, !tbaa !3
  %32 = load ptr, ptr %8, align 8, !tbaa !3
  %33 = load ptr, ptr %9, align 8, !tbaa !3
  %34 = load ptr, ptr %10, align 8, !tbaa !3
  %35 = call ptr @_testcapi_pyobject_fastcalldict_impl(ptr noundef %31, ptr noundef %32, ptr noundef %33, ptr noundef %34)
  store ptr %35, ptr %7, align 8, !tbaa !3
  br label %36

36:                                               ; preds = %21, %20
  %37 = load ptr, ptr %7, align 8, !tbaa !3
  call void @llvm.lifetime.end.p0(i64 8, ptr %10) #7
  call void @llvm.lifetime.end.p0(i64 8, ptr %9) #7
  call void @llvm.lifetime.end.p0(i64 8, ptr %8) #7
  call void @llvm.lifetime.end.p0(i64 8, ptr %7) #7
  ret ptr %37
}