; Function Attrs: nounwind uwtable
define internal ptr @_testcapi_pyobject_fastcalldict(ptr readnone captures(none) %0, ptr noundef readonly captures(none) %1, i64 noundef %2) #0 {
  %or.cond = icmp eq i64 %2, 3
  br i1 %or.cond, label %6, label %4

4:                                                ; preds = %3
  %5 = tail call i32 @_PyArg_CheckPositional(ptr noundef nonnull @.str.7, i64 noundef %2, i64 noundef 3, i64 noundef 3) #5
  %.not = icmp eq i32 %5, 0
  br i1 %.not, label %_testcapi_pyobject_fastcalldict_impl.exit, label %6

6:                                                ; preds = %3, %4
  %7 = load ptr, ptr %1, align 8, !tbaa !20
  %8 = getelementptr i8, ptr %1, i64 8
  %9 = load ptr, ptr %8, align 8, !tbaa !20
  %10 = getelementptr i8, ptr %1, i64 16
  %11 = load ptr, ptr %10, align 8, !tbaa !20
  %12 = icmp eq ptr %9, @_Py_NoneStruct
  br i1 %12, label %25, label %13

13:                                               ; preds = %6
  %14 = getelementptr i8, ptr %9, i64 8
  %.val.i.i = load ptr, ptr %14, align 8, !tbaa !3
  %15 = getelementptr i8, ptr %.val.i.i, i64 168
  %.val9.i.i = load i64, ptr %15, align 8, !tbaa !24
  %16 = and i64 %.val9.i.i, 67108864
  %.not.i.i = icmp eq i64 %16, 0
  br i1 %.not.i.i, label %fastcall_args.exit.i, label %17

17:                                               ; preds = %13
  %18 = getelementptr inbounds nuw i8, ptr %9, i64 24
  %.not.i.i.i.i = icmp eq ptr %.val.i.i, @PyLong_Type
  br i1 %.not.i.i.i.i, label %19, label %20

19:                                               ; preds = %17
  tail call void @__assert_fail(ptr noundef nonnull @.str.18, ptr noundef nonnull @.str.19, i32 noundef 282, ptr noundef nonnull @__PRETTY_FUNCTION__.Py_SIZE) #6
  unreachable

20:                                               ; preds = %17
  %.not3.i.i.i.i = icmp eq ptr %.val.i.i, @PyBool_Type
  br i1 %.not3.i.i.i.i, label %21, label %PyTuple_GET_SIZE.exit.i.i

21:                                               ; preds = %20
  tail call void @__assert_fail(ptr noundef nonnull @.str.20, ptr noundef nonnull @.str.19, i32 noundef 283, ptr noundef nonnull @__PRETTY_FUNCTION__.Py_SIZE) #6
  unreachable

PyTuple_GET_SIZE.exit.i.i:                        ; preds = %20
  %22 = getelementptr inbounds nuw i8, ptr %9, i64 16
  %23 = load i64, ptr %22, align 8, !tbaa !25
  br label %25

fastcall_args.exit.i:                             ; preds = %13
  %24 = load ptr, ptr @PyExc_TypeError, align 8, !tbaa !20
  tail call void @PyErr_SetString(ptr noundef %24, ptr noundef nonnull @.str.15) #5
  br label %_testcapi_pyobject_fastcalldict_impl.exit

25:                                               ; preds = %PyTuple_GET_SIZE.exit.i.i, %6
  %.1.ph.i = phi ptr [ null, %6 ], [ %18, %PyTuple_GET_SIZE.exit.i.i ]
  %.01.ph.i = phi i64 [ 0, %6 ], [ %23, %PyTuple_GET_SIZE.exit.i.i ]
  %26 = icmp eq ptr %11, @_Py_NoneStruct
  br i1 %26, label %33, label %27

27:                                               ; preds = %25
  %28 = getelementptr i8, ptr %11, i64 8
  %.val.i = load ptr, ptr %28, align 8, !tbaa !3
  %29 = getelementptr i8, ptr %.val.i, i64 168
  %.val8.i = load i64, ptr %29, align 8, !tbaa !24
  %30 = and i64 %.val8.i, 536870912
  %.not.i = icmp eq i64 %30, 0
  br i1 %.not.i, label %31, label %33

31:                                               ; preds = %27
  %32 = load ptr, ptr @PyExc_TypeError, align 8, !tbaa !20
  tail call void @PyErr_SetString(ptr noundef %32, ptr noundef nonnull @.str.14) #5
  br label %_testcapi_pyobject_fastcalldict_impl.exit

33:                                               ; preds = %27, %25
  %.0.i = phi ptr [ %11, %27 ], [ null, %25 ]
  %34 = tail call ptr @PyObject_VectorcallDict(ptr noundef %7, ptr noundef %.1.ph.i, i64 noundef %.01.ph.i, ptr noundef %.0.i) #5
  br label %_testcapi_pyobject_fastcalldict_impl.exit

_testcapi_pyobject_fastcalldict_impl.exit:        ; preds = %33, %31, %fastcall_args.exit.i, %4
  %.0 = phi ptr [ null, %4 ], [ %34, %33 ], [ null, %31 ], [ null, %fastcall_args.exit.i ]
  ret ptr %.0
}